ccopy_reg
_reconstructor
p1
(cRoomAreaCar
RoomAreaCar
p2
c__builtin__
object
p3
NtRp4
.(dp1
S'USED_EXPLOSIVE'
p2
I00
sS'PICKED_UP_COURTYARD_KEY'
p3
I00
sS'PICKED_UP_GARAGE_KEY'
p4
I00
sS'PICKED_UP_DOORKNOB'
p5
I00
sS'HARD_DIFFICULTY'
p6
I00
sS'UNLOCKED_SIDEHALL'
p7
I00
sS'PICKED_UP_CROWBAR'
p8
I00
sS'PICKED_UP_STUDY_KEY'
p9
I00
sS'UNLOCKED_BACKAREA'
p10
I00
sS'PICKED_UP_THINNER'
p11
I00
sS'HAVE_GARAGE_KEY'
p12
I00
sS'PICKED_UP_BATHROOM_KEY'
p13
I00
sS'PICKED_UP_PINS'
p14
I00
sS'HAVE_BATHROOM_KEY'
p15
I00
sS'PICKED_UP_MATCHES'
p16
I00
sS'HAVE_OPENER'
p17
I00
sS'SEEN_LOCKET2'
p18
I00
sS'HAVE_MUSICBOX_KEYS'
p19
I00
sS'UNLOCKED_LIVINGROOM'
p20
I00
sS'UNLOCKED_MUSICROOM'
p21
I00
sS'HAVE_STUDY_KEY'
p22
I00
sS'HAVE_LOCKET1'
p23
I00
sS'SEEN_STEVENS_INTRO'
p24
I00
sS'UNLOCKED_KITCHEN'
p25
I00
sS'HAVE_LOCKET2'
p26
I00
sS'UNLOCKED_BATHROOM'
p27
I00
sS'SEEN_STEVENS_FINAL'
p28
I00
sS'FALL_WARNING2'
p29
I00
sS'FALL_WARNING1'
p30
I00
sS'PICKED_UP_AXE'
p31
I00
sS'UNLOCKED_COURTYARD'
p32
I00
sS'SEEN_SCRAPBOOK'
p33
I00
sS'HAVE_HANGER'
p34
I00
sS'PICKED_UP_MUSICBOX_KEYS'
p35
I00
sS'PICKED_UP_DYNAMITE'
p36
I00
sS'PICKED_UP_LOCKET2'
p37
I00
sS'HAVE_DOORKNOB'
p38
I00
sS'USED_GASCAN'
p39
I00
sS'PICKED_UP_LOCKET1'
p40
I00
sS'AXE_WARNING2'
p41
I00
sS'AXE_WARNING1'
p42
I00
sS'HAVE_AXE'
p43
I00
sS'PICKED_UP_GASCAN'
p44
I00
sS'SEEN_SHADOWMAN_FINAL'
p45
I00
sS'UNLOCKED_GARAGE'
p46
I00
sS'SEEN_SHADOWMAN_INTRO'
p47
I00
sS'SEEN_STEVENS_BIBLE'
p48
I00
sS'HAVE_BUCKET_FILLED'
p49
I00
sS'HAVE_BEDROOMHALL_KEY'
p50
I00
sS'CURRENT_ITEM'
p51
I00
sS'HOLDING_ITEM'
p52
I00
sS'PICKED_UP_HANGER'
p53
I00
sS'HAVE_PINS'
p54
I00
sS'SMASHED_LOCKETS'
p55
I00
sS'HAVE_CROWBAR'
p56
I00
sS'SEEN_LOCKET1'
p57
I00
sS'BEING_CHASED'
p58
I00
sS'PICKED_UP_BIBLE'
p59
I00
sS'UNLOCKED_STUDY'
p60
I00
sS'BEING_CHASED_INSTANTLY'
p61
I00
sS'UNLOCKED_HIDDENROOM'
p62
I00
sS'PICKED_UP_OPENER'
p63
I00
sS'HAVE_MATCHES'
p64
I00
sS'PICKED_UP_BEDROOMHALL_KEY'
p65
I00
sS'HAVE_GASCAN'
p66
I00
sS'HAVE_DYNAMITE'
p67
I00
sS'SEEN_DIARY'
p68
I00
sS'PICKED_UP_BUCKET'
p69
I00
sS'HAVE_BIBLE'
p70
I00
sS'HAVE_BUCKET_NONFILLED'
p71
I00
sS'HAVE_COURTYARD_KEY'
p72
I00
sS'DISPLAYED_SUBSCREEN'
p73
I00
sS'UNLOCKED_BEDROOMHALL'
p74
I00
sS'SEEN_BUNNY'
p75
I00
sS'HAVE_THINNER'
p76
I00
s.(dp1
S'CHASE_COUNTER'
p2
I700
s.